firmware.elf:     file format elf32-littleriscv


Disassembly of section .text:

80000000 <_start>:
80000000:	00002117          	auipc	x2,0x2
80000004:	00010113          	addi	x2,x2,0 # 80002000 <_stack_top>
80000008:	00000293          	addi	x5,x0,0
8000000c:	00000313          	addi	x6,x0,0
80000010:	00000393          	addi	x7,x0,0
80000014:	00000517          	auipc	x10,0x0
80000018:	2e050513          	addi	x10,x10,736 # 800002f4 <_ebss>
8000001c:	00000597          	auipc	x11,0x0
80000020:	2d858593          	addi	x11,x11,728 # 800002f4 <_ebss>

80000024 <clear_bss_loop>:
80000024:	00b55863          	bge	x10,x11,80000034 <call_main>
80000028:	00052023          	sw	x0,0(x10)
8000002c:	00450513          	addi	x10,x10,4
80000030:	ff5ff06f          	jal	x0,80000024 <clear_bss_loop>

80000034 <call_main>:
80000034:	1b4000ef          	jal	x1,800001e8 <main>

80000038 <hang>:
80000038:	0000006f          	jal	x0,80000038 <hang>

8000003c <crc32>:
8000003c:	fd010113          	addi	x2,x2,-48
80000040:	02812623          	sw	x8,44(x2)
80000044:	03010413          	addi	x8,x2,48
80000048:	fca42e23          	sw	x10,-36(x8)
8000004c:	fcb42c23          	sw	x11,-40(x8)
80000050:	fff00793          	addi	x15,x0,-1
80000054:	fef42623          	sw	x15,-20(x8)
80000058:	fe042423          	sw	x0,-24(x8)
8000005c:	0840006f          	jal	x0,800000e0 <crc32+0xa4>
80000060:	fe842783          	lw	x15,-24(x8)
80000064:	fdc42703          	lw	x14,-36(x8)
80000068:	00f707b3          	add	x15,x14,x15
8000006c:	0007c783          	lbu	x15,0(x15)
80000070:	00078713          	addi	x14,x15,0
80000074:	fec42783          	lw	x15,-20(x8)
80000078:	00e7c7b3          	xor	x15,x15,x14
8000007c:	fef42623          	sw	x15,-20(x8)
80000080:	fe042223          	sw	x0,-28(x8)
80000084:	0440006f          	jal	x0,800000c8 <crc32+0x8c>
80000088:	fec42783          	lw	x15,-20(x8)
8000008c:	0017f793          	andi	x15,x15,1
80000090:	02078063          	beq	x15,x0,800000b0 <crc32+0x74>
80000094:	fec42783          	lw	x15,-20(x8)
80000098:	0017d713          	srli	x14,x15,0x1
8000009c:	edb887b7          	lui	x15,0xedb88
800000a0:	32078793          	addi	x15,x15,800 # edb88320 <_stack_top+0x6db86320>
800000a4:	00f747b3          	xor	x15,x14,x15
800000a8:	fef42623          	sw	x15,-20(x8)
800000ac:	0100006f          	jal	x0,800000bc <crc32+0x80>
800000b0:	fec42783          	lw	x15,-20(x8)
800000b4:	0017d793          	srli	x15,x15,0x1
800000b8:	fef42623          	sw	x15,-20(x8)
800000bc:	fe442783          	lw	x15,-28(x8)
800000c0:	00178793          	addi	x15,x15,1
800000c4:	fef42223          	sw	x15,-28(x8)
800000c8:	fe442703          	lw	x14,-28(x8)
800000cc:	00700793          	addi	x15,x0,7
800000d0:	fae7dce3          	bge	x15,x14,80000088 <crc32+0x4c>
800000d4:	fe842783          	lw	x15,-24(x8)
800000d8:	00178793          	addi	x15,x15,1
800000dc:	fef42423          	sw	x15,-24(x8)
800000e0:	fe842703          	lw	x14,-24(x8)
800000e4:	fd842783          	lw	x15,-40(x8)
800000e8:	f6f74ce3          	blt	x14,x15,80000060 <crc32+0x24>
800000ec:	fec42783          	lw	x15,-20(x8)
800000f0:	fff7c793          	xori	x15,x15,-1
800000f4:	00078513          	addi	x10,x15,0
800000f8:	02c12403          	lw	x8,44(x2)
800000fc:	03010113          	addi	x2,x2,48
80000100:	00008067          	jalr	x0,0(x1)

80000104 <bubble_sort>:
80000104:	fd010113          	addi	x2,x2,-48
80000108:	02812623          	sw	x8,44(x2)
8000010c:	03010413          	addi	x8,x2,48
80000110:	fca42e23          	sw	x10,-36(x8)
80000114:	fcb42c23          	sw	x11,-40(x8)
80000118:	fe042623          	sw	x0,-20(x8)
8000011c:	0ac0006f          	jal	x0,800001c8 <bubble_sort+0xc4>
80000120:	fe042423          	sw	x0,-24(x8)
80000124:	0880006f          	jal	x0,800001ac <bubble_sort+0xa8>
80000128:	fe842783          	lw	x15,-24(x8)
8000012c:	fdc42703          	lw	x14,-36(x8)
80000130:	00f707b3          	add	x15,x14,x15
80000134:	0007c703          	lbu	x14,0(x15)
80000138:	fe842783          	lw	x15,-24(x8)
8000013c:	00178793          	addi	x15,x15,1
80000140:	fdc42683          	lw	x13,-36(x8)
80000144:	00f687b3          	add	x15,x13,x15
80000148:	0007c783          	lbu	x15,0(x15)
8000014c:	04e7fa63          	bgeu	x15,x14,800001a0 <bubble_sort+0x9c>
80000150:	fe842783          	lw	x15,-24(x8)
80000154:	fdc42703          	lw	x14,-36(x8)
80000158:	00f707b3          	add	x15,x14,x15
8000015c:	0007c783          	lbu	x15,0(x15)
80000160:	fef403a3          	sb	x15,-25(x8)
80000164:	fe842783          	lw	x15,-24(x8)
80000168:	00178793          	addi	x15,x15,1
8000016c:	fdc42703          	lw	x14,-36(x8)
80000170:	00f70733          	add	x14,x14,x15
80000174:	fe842783          	lw	x15,-24(x8)
80000178:	fdc42683          	lw	x13,-36(x8)
8000017c:	00f687b3          	add	x15,x13,x15
80000180:	00074703          	lbu	x14,0(x14)
80000184:	00e78023          	sb	x14,0(x15)
80000188:	fe842783          	lw	x15,-24(x8)
8000018c:	00178793          	addi	x15,x15,1
80000190:	fdc42703          	lw	x14,-36(x8)
80000194:	00f707b3          	add	x15,x14,x15
80000198:	fe744703          	lbu	x14,-25(x8)
8000019c:	00e78023          	sb	x14,0(x15)
800001a0:	fe842783          	lw	x15,-24(x8)
800001a4:	00178793          	addi	x15,x15,1
800001a8:	fef42423          	sw	x15,-24(x8)
800001ac:	fd842783          	lw	x15,-40(x8)
800001b0:	fff78793          	addi	x15,x15,-1
800001b4:	fe842703          	lw	x14,-24(x8)
800001b8:	f6f748e3          	blt	x14,x15,80000128 <bubble_sort+0x24>
800001bc:	fec42783          	lw	x15,-20(x8)
800001c0:	00178793          	addi	x15,x15,1
800001c4:	fef42623          	sw	x15,-20(x8)
800001c8:	fec42703          	lw	x14,-20(x8)
800001cc:	fd842783          	lw	x15,-40(x8)
800001d0:	f4f748e3          	blt	x14,x15,80000120 <bubble_sort+0x1c>
800001d4:	00000013          	addi	x0,x0,0
800001d8:	00000013          	addi	x0,x0,0
800001dc:	02c12403          	lw	x8,44(x2)
800001e0:	03010113          	addi	x2,x2,48
800001e4:	00008067          	jalr	x0,0(x1)

800001e8 <main>:
800001e8:	fc010113          	addi	x2,x2,-64
800001ec:	02112e23          	sw	x1,60(x2)
800001f0:	02812c23          	sw	x8,56(x2)
800001f4:	04010413          	addi	x8,x2,64
800001f8:	020807b7          	lui	x15,0x2080
800001fc:	30578793          	addi	x15,x15,773 # 2080305 <_start-0x7df7fcfb>
80000200:	fcf42623          	sw	x15,-52(x8)
80000204:	00900793          	addi	x15,x0,9
80000208:	fcf40823          	sb	x15,-48(x8)
8000020c:	00500793          	addi	x15,x0,5
80000210:	fef42623          	sw	x15,-20(x8)
80000214:	fcc40793          	addi	x15,x8,-52
80000218:	fec42583          	lw	x11,-20(x8)
8000021c:	00078513          	addi	x10,x15,0
80000220:	ee5ff0ef          	jal	x1,80000104 <bubble_sort>
80000224:	fcc40793          	addi	x15,x8,-52
80000228:	fec42583          	lw	x11,-20(x8)
8000022c:	00078513          	addi	x10,x15,0
80000230:	e0dff0ef          	jal	x1,8000003c <crc32>
80000234:	fea42423          	sw	x10,-24(x8)
80000238:	fcc44703          	lbu	x14,-52(x8)
8000023c:	00200793          	addi	x15,x0,2
80000240:	04f71663          	bne	x14,x15,8000028c <main+0xa4>
80000244:	fcd44703          	lbu	x14,-51(x8)
80000248:	00300793          	addi	x15,x0,3
8000024c:	04f71063          	bne	x14,x15,8000028c <main+0xa4>
80000250:	fce44703          	lbu	x14,-50(x8)
80000254:	00500793          	addi	x15,x0,5
80000258:	02f71a63          	bne	x14,x15,8000028c <main+0xa4>
8000025c:	fcf44703          	lbu	x14,-49(x8)
80000260:	00800793          	addi	x15,x0,8
80000264:	02f71463          	bne	x14,x15,8000028c <main+0xa4>
80000268:	fd044703          	lbu	x14,-48(x8)
8000026c:	00900793          	addi	x15,x0,9
80000270:	00f71e63          	bne	x14,x15,8000028c <main+0xa4>
80000274:	10800793          	addi	x15,x0,264
80000278:	fef42223          	sw	x15,-28(x8)
8000027c:	fe442783          	lw	x15,-28(x8)
80000280:	01100713          	addi	x14,x0,17
80000284:	00e7a023          	sw	x14,0(x15)
80000288:	0180006f          	jal	x0,800002a0 <main+0xb8>
8000028c:	10800793          	addi	x15,x0,264
80000290:	fef42023          	sw	x15,-32(x8)
80000294:	fe042783          	lw	x15,-32(x8)
80000298:	04500713          	addi	x14,x0,69
8000029c:	00e7a023          	sw	x14,0(x15)
800002a0:	10400793          	addi	x15,x0,260
800002a4:	fcf42e23          	sw	x15,-36(x8)
800002a8:	fdc42783          	lw	x15,-36(x8)
800002ac:	fe842703          	lw	x14,-24(x8)
800002b0:	00e7a023          	sw	x14,0(x15)
800002b4:	fe842703          	lw	x14,-24(x8)
800002b8:	199a07b7          	lui	x15,0x199a0
800002bc:	bd478793          	addi	x15,x15,-1068 # 1999fbd4 <_start-0x6666042c>
800002c0:	00f70e63          	beq	x14,x15,800002dc <main+0xf4>
800002c4:	10000793          	addi	x15,x0,256
800002c8:	fcf42a23          	sw	x15,-44(x8)
800002cc:	fd442783          	lw	x15,-44(x8)
800002d0:	00f00713          	addi	x14,x0,15
800002d4:	00e7a023          	sw	x14,0(x15)
800002d8:	0180006f          	jal	x0,800002f0 <main+0x108>
800002dc:	10000793          	addi	x15,x0,256
800002e0:	fcf42c23          	sw	x15,-40(x8)
800002e4:	fd842783          	lw	x15,-40(x8)
800002e8:	0fa00713          	addi	x14,x0,250
800002ec:	00e7a023          	sw	x14,0(x15)
800002f0:	0000006f          	jal	x0,800002f0 <main+0x108>

Disassembly of section .riscv.attributes:

00000000 <.riscv.attributes>:
   0:	1b41                	c.addi	x22,-16
   2:	0000                	c.unimp
   4:	7200                	c.flw	f8,32(x12)
   6:	7369                	c.lui	x6,0xffffa
   8:	01007663          	bgeu	x0,x16,14 <_start-0x7fffffec>
   c:	0011                	c.addi	x0,4
   e:	0000                	c.unimp
  10:	1004                	c.addi4spn	x9,x2,32
  12:	7205                	c.lui	x4,0xfffe1
  14:	3376                	c.fldsp	f6,376(x2)
  16:	6932                	c.flwsp	f18,12(x2)
  18:	7032                	c.flwsp	f0,44(x2)
  1a:	0030                	c.addi4spn	x12,x2,8

Disassembly of section .comment:

00000000 <.comment>:
   0:	3a434347          	fmsub.d	f6,f6,f4,f7,rmm
   4:	2820                	c.fld	f8,80(x8)
   6:	2029                	c.jal	10 <_start-0x7ffffff0>
   8:	3031                	c.jal	fffff814 <_stack_top+0x7fffd814>
   a:	322e                	c.fldsp	f4,232(x2)
   c:	302e                	c.fldsp	f0,232(x2)
